; Function Attrs: nounwind uwtable
define hidden i32 @exr_attr_string_set(ptr noundef %0, ptr noundef %1, ptr noundef %2) local_unnamed_addr #0 {
  %.not = icmp eq ptr %2, null
  br i1 %.not, label %.split, label %28

.split:                                           ; preds = %3
  %.not.i = icmp eq ptr %0, null
  br i1 %.not.i, label %exr_attr_string_set_with_length.exit, label %4

4:                                                ; preds = %.split
  %.not32.i = icmp eq ptr %1, null
  br i1 %.not32.i, label %5, label %9

5:                                                ; preds = %4
  %6 = getelementptr inbounds nuw i8, ptr %0, i64 64
  %7 = load ptr, ptr %6, align 8, !tbaa !22
  %8 = tail call i32 %7(ptr noundef nonnull %0, i32 noundef 3, ptr noundef nonnull @.str.5) #4
  br label %exr_attr_string_set_with_length.exit

9:                                                ; preds = %4
  %10 = getelementptr inbounds nuw i8, ptr %1, i64 4
  %11 = load i32, ptr %10, align 4, !tbaa !27
  %12 = icmp sgt i32 %11, 0
  br i1 %12, label %13, label %16

13:                                               ; preds = %9
  store i32 0, ptr %1, align 8, !tbaa !26
  %14 = getelementptr inbounds nuw i8, ptr %1, i64 8
  %15 = load ptr, ptr %14, align 8, !tbaa !24
  store i8 0, ptr %15, align 1, !tbaa !28
  br label %exr_attr_string_set_with_length.exit

16:                                               ; preds = %9
  %17 = getelementptr inbounds nuw i8, ptr %1, i64 8
  %18 = getelementptr inbounds nuw i8, ptr %0, i64 88
  tail call void @llvm.memset.p0.i64(ptr noundef nonnull align 8 dereferenceable(16) %1, i8 0, i64 16, i1 false)
  %19 = load ptr, ptr %18, align 8, !tbaa !23
  %20 = tail call ptr %19(i64 noundef 1) #4
  store ptr %20, ptr %17, align 8, !tbaa !24
  %21 = icmp eq ptr %20, null
  br i1 %21, label %exr_attr_string_init.exit.i.i, label %exr_attr_string_init.exit.thread.i.i

exr_attr_string_init.exit.thread.i.i:             ; preds = %16
  store i32 0, ptr %1, align 8, !tbaa !26
  store i32 1, ptr %10, align 4, !tbaa !27
  br label %26

exr_attr_string_init.exit.i.i:                    ; preds = %16
  %22 = getelementptr inbounds nuw i8, ptr %0, i64 56
  %23 = load ptr, ptr %22, align 8, !tbaa !25
  %24 = tail call i32 %23(ptr noundef nonnull %0, i32 noundef 1) #4
  %25 = icmp eq i32 %24, 0
  br i1 %25, label %exr_attr_string_init.exit._crit_edge.i.i, label %exr_attr_string_set_with_length.exit

exr_attr_string_init.exit._crit_edge.i.i:         ; preds = %exr_attr_string_init.exit.i.i
  %.pre.i.i = load ptr, ptr %17, align 8, !tbaa !24
  br label %26

26:                                               ; preds = %exr_attr_string_init.exit._crit_edge.i.i, %exr_attr_string_init.exit.thread.i.i
  %27 = phi ptr [ %.pre.i.i, %exr_attr_string_init.exit._crit_edge.i.i ], [ %20, %exr_attr_string_init.exit.thread.i.i ]
  store i8 0, ptr %27, align 1, !tbaa !28
  br label %exr_attr_string_set_with_length.exit

28:                                               ; preds = %3
  %29 = tail call i64 @strlen(ptr noundef nonnull dereferenceable(1) %2) #5
  %30 = icmp ugt i64 %29, 2147483646
  br i1 %30, label %31, label %.split13

31:                                               ; preds = %28
  %.not16 = icmp eq ptr %0, null
  br i1 %.not16, label %exr_attr_string_set_with_length.exit, label %32

32:                                               ; preds = %31
  %33 = getelementptr inbounds nuw i8, ptr %0, i64 64
  %34 = load ptr, ptr %33, align 8, !tbaa !22
  %35 = tail call i32 %34(ptr noundef nonnull %0, i32 noundef 3, ptr noundef nonnull @.str.3) #4
  br label %exr_attr_string_set_with_length.exit

.split13:                                         ; preds = %28
  %36 = trunc nuw nsw i64 %29 to i32
  %37 = tail call i32 @exr_attr_string_set_with_length(ptr noundef %0, ptr noundef %1, ptr noundef nonnull %2, i32 noundef %36)
  br label %exr_attr_string_set_with_length.exit

exr_attr_string_set_with_length.exit:             ; preds = %26, %exr_attr_string_init.exit.i.i, %13, %5, %.split, %.split13, %31, %32
  %.011 = phi i32 [ %35, %32 ], [ 2, %31 ], [ %37, %.split13 ], [ 0, %13 ], [ %8, %5 ], [ 2, %.split ], [ 0, %26 ], [ %24, %exr_attr_string_init.exit.i.i ]
  ret i32 %.011
}